; Function Attrs: nounwind uwtable
define dso_local noundef ptr @make_parsestate(ptr noundef %0) local_unnamed_addr #0 {
  %2 = tail call ptr @palloc0(i64 noundef 240) #8
  store ptr %0, ptr %2, align 8
  %3 = getelementptr inbounds nuw i8, ptr %2, i64 148
  store i32 1, ptr %3, align 4
  %4 = getelementptr inbounds nuw i8, ptr %2, i64 169
  store i8 1, ptr %4, align 1
  %.not = icmp eq ptr %0, null
  br i1 %.not, label %27, label %5

5:                                                ; preds = %1
  %6 = getelementptr inbounds nuw i8, ptr %0, i64 8
  %7 = load ptr, ptr %6, align 8
  %8 = getelementptr inbounds nuw i8, ptr %2, i64 8
  store ptr %7, ptr %8, align 8
  %9 = getelementptr inbounds nuw i8, ptr %0, i64 200
  %10 = load ptr, ptr %9, align 8
  %11 = getelementptr inbounds nuw i8, ptr %2, i64 200
  store ptr %10, ptr %11, align 8
  %12 = getelementptr inbounds nuw i8, ptr %0, i64 208
  %13 = load ptr, ptr %12, align 8
  %14 = getelementptr inbounds nuw i8, ptr %2, i64 208
  store ptr %13, ptr %14, align 8
  %15 = getelementptr inbounds nuw i8, ptr %0, i64 216
  %16 = load ptr, ptr %15, align 8
  %17 = getelementptr inbounds nuw i8, ptr %2, i64 216
  store ptr %16, ptr %17, align 8
  %18 = getelementptr inbounds nuw i8, ptr %0, i64 224
  %19 = load ptr, ptr %18, align 8
  %20 = getelementptr inbounds nuw i8, ptr %2, i64 224
  store ptr %19, ptr %20, align 8
  %21 = getelementptr inbounds nuw i8, ptr %0, i64 232
  %22 = load ptr, ptr %21, align 8
  %23 = getelementptr inbounds nuw i8, ptr %2, i64 232
  store ptr %22, ptr %23, align 8
  %24 = getelementptr inbounds nuw i8, ptr %0, i64 176
  %25 = load ptr, ptr %24, align 8
  %26 = getelementptr inbounds nuw i8, ptr %2, i64 176
  store ptr %25, ptr %26, align 8
  br label %27

27:                                               ; preds = %5, %1
  ret ptr %2
}